target datalayout = "e-m:e-p270:32:32-p271:32:32-p272:64:64-i64:64-i128:128-f80:128-n8:16:32:64-S128"
target triple = "x86_64-pc-linux-gnu"

%class.b3RotationalLimitMotor = type { float, float, float, float, float, float, float, float, float, float, float, i8, float, float, i32, float }

; Function Attrs: mustprogress nounwind uwtable
define dso_local noundef i32 @_ZN22b3RotationalLimitMotor14testLimitValueEf(ptr noundef nonnull align 4 dereferenceable(64) %0, float noundef %1) #3 align 2 {
  %3 = alloca i32, align 4
  %4 = alloca ptr, align 8
  %5 = alloca float, align 4
  store ptr %0, ptr %4, align 8, !tbaa !43
  store float %1, ptr %5, align 4, !tbaa !37
  %6 = load ptr, ptr %4, align 8
  %7 = getelementptr inbounds nuw %class.b3RotationalLimitMotor, ptr %6, i32 0, i32 0
  %8 = load float, ptr %7, align 4, !tbaa !50
  %9 = getelementptr inbounds nuw %class.b3RotationalLimitMotor, ptr %6, i32 0, i32 1
  %10 = load float, ptr %9, align 4, !tbaa !51
  %11 = fcmp ogt float %8, %10
  br i1 %11, label %12, label %14

12:                                               ; preds = %2
  %13 = getelementptr inbounds nuw %class.b3RotationalLimitMotor, ptr %6, i32 0, i32 14
  store i32 0, ptr %13, align 4, !tbaa !58
  store i32 0, ptr %3, align 4
  br label %75

14:                                               ; preds = %2
  %15 = load float, ptr %5, align 4, !tbaa !37
  %16 = getelementptr inbounds nuw %class.b3RotationalLimitMotor, ptr %6, i32 0, i32 0
  %17 = load float, ptr %16, align 4, !tbaa !50
  %18 = fcmp olt float %15, %17
  br i1 %18, label %19, label %43

19:                                               ; preds = %14
  %20 = getelementptr inbounds nuw %class.b3RotationalLimitMotor, ptr %6, i32 0, i32 14
  store i32 1, ptr %20, align 4, !tbaa !58
  %21 = load float, ptr %5, align 4, !tbaa !37
  %22 = getelementptr inbounds nuw %class.b3RotationalLimitMotor, ptr %6, i32 0, i32 0
  %23 = load float, ptr %22, align 4, !tbaa !50
  %24 = fsub float %21, %23
  %25 = getelementptr inbounds nuw %class.b3RotationalLimitMotor, ptr %6, i32 0, i32 12
  store float %24, ptr %25, align 4, !tbaa !59
  %26 = getelementptr inbounds nuw %class.b3RotationalLimitMotor, ptr %6, i32 0, i32 12
  %27 = load float, ptr %26, align 4, !tbaa !59
  %28 = fcmp ogt float %27, 0x400921FB60000000
  br i1 %28, label %29, label %33

29:                                               ; preds = %19
  %30 = getelementptr inbounds nuw %class.b3RotationalLimitMotor, ptr %6, i32 0, i32 12
  %31 = load float, ptr %30, align 4, !tbaa !59
  %32 = fsub float %31, 0x401921FB60000000
  store float %32, ptr %30, align 4, !tbaa !59
  br label %42

33:                                               ; preds = %19
  %34 = getelementptr inbounds nuw %class.b3RotationalLimitMotor, ptr %6, i32 0, i32 12
  %35 = load float, ptr %34, align 4, !tbaa !59
  %36 = fcmp olt float %35, 0xC00921FB60000000
  br i1 %36, label %37, label %41

37:                                               ; preds = %33
  %38 = getelementptr inbounds nuw %class.b3RotationalLimitMotor, ptr %6, i32 0, i32 12
  %39 = load float, ptr %38, align 4, !tbaa !59
  %40 = fadd float %39, 0x401921FB60000000
  store float %40, ptr %38, align 4, !tbaa !59
  br label %41

41:                                               ; preds = %37, %33
  br label %42

42:                                               ; preds = %41, %29
  store i32 1, ptr %3, align 4
  br label %75

43:                                               ; preds = %14
  %44 = load float, ptr %5, align 4, !tbaa !37
  %45 = getelementptr inbounds nuw %class.b3RotationalLimitMotor, ptr %6, i32 0, i32 1
  %46 = load float, ptr %45, align 4, !tbaa !51
  %47 = fcmp ogt float %44, %46
  br i1 %47, label %48, label %72

48:                                               ; preds = %43
  %49 = getelementptr inbounds nuw %class.b3RotationalLimitMotor, ptr %6, i32 0, i32 14
  store i32 2, ptr %49, align 4, !tbaa !58
  %50 = load float, ptr %5, align 4, !tbaa !37
  %51 = getelementptr inbounds nuw %class.b3RotationalLimitMotor, ptr %6, i32 0, i32 1
  %52 = load float, ptr %51, align 4, !tbaa !51
  %53 = fsub float %50, %52
  %54 = getelementptr inbounds nuw %class.b3RotationalLimitMotor, ptr %6, i32 0, i32 12
  store float %53, ptr %54, align 4, !tbaa !59
  %55 = getelementptr inbounds nuw %class.b3RotationalLimitMotor, ptr %6, i32 0, i32 12
  %56 = load float, ptr %55, align 4, !tbaa !59
  %57 = fcmp ogt float %56, 0x400921FB60000000
  br i1 %57, label %58, label %62

58:                                               ; preds = %48
  %59 = getelementptr inbounds nuw %class.b3RotationalLimitMotor, ptr %6, i32 0, i32 12
  %60 = load float, ptr %59, align 4, !tbaa !59
  %61 = fsub float %60, 0x401921FB60000000
  store float %61, ptr %59, align 4, !tbaa !59
  br label %71

62:                                               ; preds = %48
  %63 = getelementptr inbounds nuw %class.b3RotationalLimitMotor, ptr %6, i32 0, i32 12
  %64 = load float, ptr %63, align 4, !tbaa !59
  %65 = fcmp olt float %64, 0xC00921FB60000000
  br i1 %65, label %66, label %70

66:                                               ; preds = %62
  %67 = getelementptr inbounds nuw %class.b3RotationalLimitMotor, ptr %6, i32 0, i32 12
  %68 = load float, ptr %67, align 4, !tbaa !59
  %69 = fadd float %68, 0x401921FB60000000
  store float %69, ptr %67, align 4, !tbaa !59
  br label %70

70:                                               ; preds = %66, %62
  br label %71

71:                                               ; preds = %70, %58
  store i32 2, ptr %3, align 4
  br label %75

72:                                               ; preds = %43
  br label %73

73:                                               ; preds = %72
  %74 = getelementptr inbounds nuw %class.b3RotationalLimitMotor, ptr %6, i32 0, i32 14
  store i32 0, ptr %74, align 4, !tbaa !58
  store i32 0, ptr %3, align 4
  br label %75

75:                                               ; preds = %73, %71, %42, %12
  %76 = load i32, ptr %3, align 4
  ret i32 %76
}